; ModuleID = '42/616.c'
source_filename = "42/616.c"
target datalayout = "e-m:e-p270:32:32-p271:32:32-p272:64:64-i64:64-f80:128-n8:16:32:64-S128"
target triple = "x86_64-pc-linux-gnu"

@.str = private unnamed_addr constant [3 x i8] c"%d\00", align 1
@.str.1 = private unnamed_addr constant [4 x i8] c"%d \00", align 1

; Function Attrs: noinline nounwind uwtable
define dso_local void @main() #0 {
  %1 = alloca i32, align 4
  %2 = alloca [100000 x i32], align 16
  %3 = alloca i32, align 4
  %4 = alloca i32, align 4
  %5 = alloca i32, align 4
  %6 = alloca i32*, align 8
  %7 = alloca i32*, align 8
  store i32 0, i32* %5, align 4
  %8 = call i32 (i8*, ...) @__isoc99_scanf(i8* getelementptr inbounds ([3 x i8], [3 x i8]* @.str, i64 0, i64 0), i32* %1)
  store i32 0, i32* %4, align 4
  br label %9

9:                                                ; preds = %18, %0
  %10 = load i32, i32* %4, align 4
  %11 = load i32, i32* %1, align 4
  %12 = icmp slt i32 %10, %11
  br i1 %12, label %13, label %21

13:                                               ; preds = %9
  %14 = load i32, i32* %4, align 4
  %15 = sext i32 %14 to i64
  %16 = getelementptr inbounds [100000 x i32], [100000 x i32]* %2, i64 0, i64 %15
  %17 = call i32 (i8*, ...) @__isoc99_scanf(i8* getelementptr inbounds ([3 x i8], [3 x i8]* @.str, i64 0, i64 0), i32* %16)
  br label %18

18:                                               ; preds = %13
  %19 = load i32, i32* %4, align 4
  %20 = add nsw i32 %19, 1
  store i32 %20, i32* %4, align 4
  br label %9

21:                                               ; preds = %9
  %22 = call i32 (i8*, ...) @__isoc99_scanf(i8* getelementptr inbounds ([3 x i8], [3 x i8]* @.str, i64 0, i64 0), i32* %3)
  %23 = getelementptr inbounds [100000 x i32], [100000 x i32]* %2, i64 0, i64 0
  store i32* %23, i32** %6, align 8
  br label %24

24:                                               ; preds = %67, %21
  %25 = load i32*, i32** %6, align 8
  %26 = getelementptr inbounds [100000 x i32], [100000 x i32]* %2, i64 0, i64 0
  %27 = load i32, i32* %1, align 4
  %28 = sext i32 %27 to i64
  %29 = getelementptr inbounds i32, i32* %26, i64 %28
  %30 = load i32, i32* %5, align 4
  %31 = sext i32 %30 to i64
  %32 = sub i64 0, %31
  %33 = getelementptr inbounds i32, i32* %29, i64 %32
  %34 = icmp ult i32* %25, %33
  br i1 %34, label %35, label %70

35:                                               ; preds = %24
  %36 = load i32*, i32** %6, align 8
  %37 = load i32, i32* %36, align 4
  %38 = load i32, i32* %3, align 4
  %39 = icmp eq i32 %37, %38
  br i1 %39, label %40, label %66

40:                                               ; preds = %35
  %41 = load i32, i32* %5, align 4
  %42 = add nsw i32 %41, 1
  store i32 %42, i32* %5, align 4
  %43 = load i32*, i32** %6, align 8
  store i32* %43, i32** %7, align 8
  br label %44

44:                                               ; preds = %60, %40
  %45 = load i32*, i32** %7, align 8
  %46 = getelementptr inbounds [100000 x i32], [100000 x i32]* %2, i64 0, i64 0
  %47 = load i32, i32* %1, align 4
  %48 = sext i32 %47 to i64
  %49 = getelementptr inbounds i32, i32* %46, i64 %48
  %50 = load i32, i32* %5, align 4
  %51 = sext i32 %50 to i64
  %52 = sub i64 0, %51
  %53 = getelementptr inbounds i32, i32* %49, i64 %52
  %54 = icmp ult i32* %45, %53
  br i1 %54, label %55, label %63

55:                                               ; preds = %44
  %56 = load i32*, i32** %7, align 8
  %57 = getelementptr inbounds i32, i32* %56, i64 1
  %58 = load i32, i32* %57, align 4
  %59 = load i32*, i32** %7, align 8
  store i32 %58, i32* %59, align 4
  br label %60

60:                                               ; preds = %55
  %61 = load i32*, i32** %7, align 8
  %62 = getelementptr inbounds i32, i32* %61, i32 1
  store i32* %62, i32** %7, align 8
  br label %44

63:                                               ; preds = %44
  %64 = load i32*, i32** %6, align 8
  %65 = getelementptr inbounds i32, i32* %64, i32 -1
  store i32* %65, i32** %6, align 8
  br label %66

66:                                               ; preds = %63, %35
  br label %67

67:                                               ; preds = %66
  %68 = load i32*, i32** %6, align 8
  %69 = getelementptr inbounds i32, i32* %68, i32 1
  store i32* %69, i32** %6, align 8
  br label %24

70:                                               ; preds = %24
  %71 = getelementptr inbounds [100000 x i32], [100000 x i32]* %2, i64 0, i64 0
  store i32* %71, i32** %6, align 8
  store i32 0, i32* %4, align 4
  br label %72

72:                                               ; preds = %86, %70
  %73 = load i32, i32* %4, align 4
  %74 = load i32, i32* %1, align 4
  %75 = load i32, i32* %5, align 4
  %76 = sub nsw i32 %74, %75
  %77 = sub nsw i32 %76, 1
  %78 = icmp slt i32 %73, %77
  br i1 %78, label %79, label %89

79:                                               ; preds = %72
  %80 = load i32*, i32** %6, align 8
  %81 = load i32, i32* %4, align 4
  %82 = sext i32 %81 to i64
  %83 = getelementptr inbounds i32, i32* %80, i64 %82
  %84 = load i32, i32* %83, align 4
  %85 = call i32 (i8*, ...) @printf(i8* getelementptr inbounds ([4 x i8], [4 x i8]* @.str.1, i64 0, i64 0), i32 %84)
  br label %86

86:                                               ; preds = %79
  %87 = load i32, i32* %4, align 4
  %88 = add nsw i32 %87, 1
  store i32 %88, i32* %4, align 4
  br label %72

89:                                               ; preds = %72
  %90 = load i32*, i32** %6, align 8
  %91 = load i32, i32* %4, align 4
  %92 = sext i32 %91 to i64
  %93 = getelementptr inbounds i32, i32* %90, i64 %92
  %94 = load i32, i32* %93, align 4
  %95 = call i32 (i8*, ...) @printf(i8* getelementptr inbounds ([3 x i8], [3 x i8]* @.str, i64 0, i64 0), i32 %94)
  ret void
}

declare dso_local i32 @__isoc99_scanf(i8*, ...) #1

declare dso_local i32 @printf(i8*, ...) #1


!llvm.module.flags = !{!0}
!llvm.ident = !{!1}

!0 = !{i32 1, !"wchar_size", i32 4}
!1 = !{!"clang version 10.0.0-4ubuntu1 "}
